; Function Attrs: nounwind uwtable
define i32 @Gia_ManNonRegBoxNum(ptr noundef readonly captures(none) %0) local_unnamed_addr #0 {
  %2 = getelementptr inbounds nuw i8, ptr %0, i64 736
  %3 = load ptr, ptr %2, align 8, !tbaa !3
  %.not.i = icmp eq ptr %3, null
  br i1 %.not.i, label %Gia_ManBoxNum.exit, label %4

4:                                                ; preds = %1
  %5 = tail call i32 @Tim_ManBoxNum(ptr noundef nonnull %3) #20
  br label %Gia_ManBoxNum.exit

Gia_ManBoxNum.exit:                               ; preds = %1, %4
  %6 = phi i32 [ %5, %4 ], [ 0, %1 ]
  %7 = getelementptr inbounds nuw i8, ptr %0, i64 472
  %8 = load ptr, ptr %7, align 8, !tbaa !28
  %.not.i2 = icmp eq ptr %8, null
  br i1 %.not.i2, label %Gia_ManRegBoxNum.exit, label %9

9:                                                ; preds = %Gia_ManBoxNum.exit
  %10 = getelementptr i8, ptr %8, i64 4
  %.val.i = load i32, ptr %10, align 4, !tbaa !29
  br label %Gia_ManRegBoxNum.exit

Gia_ManRegBoxNum.exit:                            ; preds = %Gia_ManBoxNum.exit, %9
  %11 = phi i32 [ %.val.i, %9 ], [ 0, %Gia_ManBoxNum.exit ]
  %12 = sub nsw i32 %6, %11
  ret i32 %12
}